; Function Attrs: mustprogress nofree norecurse nosync nounwind willreturn memory(readwrite, inaccessiblemem: none) uwtable
define dso_local void @_ZN11btMultiBody22addJointTorqueMultiDofEiif(ptr nocapture noundef nonnull readonly align 8 dereferenceable(640) %this, i32 noundef %i, i32 noundef %dof, float noundef %Q) local_unnamed_addr #8 align 2 {
entry:
  %m_data.i = getelementptr inbounds i8, ptr %this, i64 192
  %0 = load ptr, ptr %m_data.i, align 8
  %idxprom.i = sext i32 %i to i64
  %idxprom = sext i32 %dof to i64
  %arrayidx = getelementptr inbounds %struct.btMultibodyLink, ptr %0, i64 %idxprom.i, i32 21, i64 %idxprom
  %1 = load float, ptr %arrayidx, align 4
  %add = fadd float %1, %Q
  store float %add, ptr %arrayidx, align 4
  ret void
}